target datalayout = "e-m:e-p270:32:32-p271:32:32-p272:64:64-i64:64-i128:128-f80:128-n8:16:32:64-S128"
target triple = "x86_64-pc-linux-gnu"

@trace2_enabled = internal global i32 0, align 4

; Function Attrs: nounwind uwtable
define dso_local void @trace2_cmd_set_config_fl(ptr noundef %0, i32 noundef %1, ptr noundef %2, ptr noundef %3) #0 {
  %5 = alloca ptr, align 8
  %6 = alloca i32, align 4
  %7 = alloca ptr, align 8
  %8 = alloca ptr, align 8
  store ptr %0, ptr %5, align 8, !tbaa !4
  store i32 %1, ptr %6, align 4, !tbaa !9
  store ptr %2, ptr %7, align 8, !tbaa !4
  store ptr %3, ptr %8, align 8, !tbaa !4
  %9 = load i32, ptr @trace2_enabled, align 4, !tbaa !9
  %10 = icmp ne i32 %9, 0
  br i1 %10, label %12, label %11

11:                                               ; preds = %4
  br label %17

12:                                               ; preds = %4
  %13 = load ptr, ptr %5, align 8, !tbaa !4
  %14 = load i32, ptr %6, align 4, !tbaa !9
  %15 = load ptr, ptr %7, align 8, !tbaa !4
  %16 = load ptr, ptr %8, align 8, !tbaa !4
  call void @tr2_cfg_set_fl(ptr noundef %13, i32 noundef %14, ptr noundef %15, ptr noundef %16)
  br label %17

17:                                               ; preds = %12, %11
  ret void
}