; Function Attrs: nounwind uwtable
define dso_local void @trace2_cmd_set_config_fl(ptr noundef %0, i32 noundef %1, ptr noundef %2, ptr noundef %3) local_unnamed_addr #0 {
  %.b = load i1, ptr @trace2_enabled, align 4
  br i1 %.b, label %5, label %6

5:                                                ; preds = %4
  tail call void @tr2_cfg_set_fl(ptr noundef %0, i32 noundef %1, ptr noundef %2, ptr noundef %3) #11
  br label %6

6:                                                ; preds = %4, %5
  ret void
}